; Function Attrs: mustprogress uwtable
define hidden void @_ZNK4cvc58internal6theory11quantifiers5ieval5State8evaluateENS0_12NodeTemplateILb0EEE(ptr dead_on_unwind noalias writable sret(%"class.cvc5::internal::NodeTemplate.514") align 8 %0, ptr noundef nonnull align 8 dereferenceable(424) %1, ptr noundef nonnull %2) local_unnamed_addr #3 align 2 personality ptr @__gxx_personality_v0 {
  %4 = alloca %"class.cvc5::internal::NodeTemplate.514", align 8
  %5 = tail call noundef zeroext i1 @_ZNK4cvc58internal12NodeTemplateILb0EE7isConstEv(ptr noundef nonnull align 8 dereferenceable(8) %2)
  br i1 %5, label %6, label %8

6:                                                ; preds = %3
  %7 = load ptr, ptr %2, align 8, !tbaa !112
  store ptr %7, ptr %0, align 8, !tbaa !112
  br label %15

8:                                                ; preds = %3
  %9 = getelementptr inbounds nuw i8, ptr %1, i64 48
  %10 = load ptr, ptr %9, align 8, !tbaa !101
  %11 = load ptr, ptr %2, align 8, !tbaa !112
  store ptr %11, ptr %4, align 8, !tbaa !112
  %12 = load ptr, ptr %10, align 8, !tbaa !3
  %13 = getelementptr inbounds nuw i8, ptr %12, i64 16
  %14 = load ptr, ptr %13, align 8
  call void %14(ptr dead_on_unwind writable sret(%"class.cvc5::internal::NodeTemplate.514") align 8 %0, ptr noundef nonnull align 8 dereferenceable(20) %10, ptr noundef nonnull align 8 dereferenceable(424) %1, ptr noundef nonnull %4)
  br label %15

15:                                               ; preds = %8, %6
  ret void
}